; Function Attrs: inlinehint nofree nounwind uwtable
define internal fastcc i64 @hwloc_utils_parse_flags(ptr noundef %0, ptr noundef nonnull readonly captures(none) %1, i32 noundef range(i32 2, 4) %2, ptr noundef %3) unnamed_addr #11 {
  %5 = alloca ptr, align 8
  call void @llvm.lifetime.start.p0(i64 8, ptr nonnull %5) #27
  %6 = call i64 @strtoul(ptr noundef %0, ptr noundef nonnull %5, i32 noundef 0) #27
  %7 = load ptr, ptr %5, align 8, !tbaa !4
  %.not = icmp eq ptr %7, %0
  br i1 %.not, label %13, label %8

8:                                                ; preds = %4
  %9 = load i8, ptr %7, align 1, !tbaa !11
  %10 = icmp eq i8 %9, 0
  br i1 %10, label %11, label %13

11:                                               ; preds = %8
  %sext = shl i64 %6, 32
  %12 = ashr exact i64 %sext, 32
  br label %.thread

13:                                               ; preds = %8, %4
  %14 = load i8, ptr %0, align 1, !tbaa !11
  %.not7898 = icmp eq i8 %14, 0
  br i1 %.not7898, label %._crit_edge, label %.lr.ph

.lr.ph:                                           ; preds = %13
  %15 = tail call ptr @__ctype_toupper_loc() #33
  br label %16

16:                                               ; preds = %.lr.ph, %16
  %17 = phi i8 [ %14, %.lr.ph ], [ %26, %16 ]
  %.06799 = phi i64 [ 0, %.lr.ph ], [ %24, %16 ]
  %18 = getelementptr inbounds nuw i8, ptr %0, i64 %.06799
  %19 = load ptr, ptr %15, align 8, !tbaa !96
  %20 = sext i8 %17 to i64
  %21 = getelementptr inbounds i32, ptr %19, i64 %20
  %22 = load i32, ptr %21, align 4, !tbaa !21
  %23 = trunc i32 %22 to i8
  store i8 %23, ptr %18, align 1, !tbaa !11
  %24 = add i64 %.06799, 1
  %25 = getelementptr inbounds nuw i8, ptr %0, i64 %24
  %26 = load i8, ptr %25, align 1, !tbaa !11
  %.not78 = icmp eq i8 %26, 0
  br i1 %.not78, label %._crit_edge, label %16, !llvm.loop !98

._crit_edge:                                      ; preds = %16, %13
  %27 = tail call i32 @strcmp(ptr noundef nonnull dereferenceable(1) %0, ptr noundef nonnull dereferenceable(5) @.str.84) #28
  %28 = icmp eq i32 %27, 0
  br i1 %28, label %.thread, label %.preheader.preheader

.preheader.preheader:                             ; preds = %._crit_edge
  %wide.trip.count = zext nneg i32 %2 to i64
  %wide.trip.count119 = zext nneg i32 %2 to i64
  br label %.preheader

.preheader:                                       ; preds = %.preheader.preheader, %.split106.us
  %.069 = phi i64 [ %.us-phi107, %.split106.us ], [ 0, %.preheader.preheader ]
  %.062 = phi ptr [ %storemerge, %.split106.us ], [ %0, %.preheader.preheader ]
  %.not79 = icmp eq ptr %.062, null
  br i1 %.not79, label %.thread, label %29

29:                                               ; preds = %.preheader
  %30 = tail call i64 @strspn(ptr noundef nonnull %.062, ptr noundef nonnull @.str.85) #28
  %31 = getelementptr inbounds nuw i8, ptr %.062, i64 %30
  %32 = tail call i64 @strcspn(ptr noundef nonnull %31, ptr noundef nonnull @.str.86) #28
  %.not80 = icmp eq i64 %32, 0
  br i1 %.not80, label %.thread, label %33

33:                                               ; preds = %29
  %34 = getelementptr inbounds nuw i8, ptr %31, i64 %32
  %35 = load i8, ptr %34, align 1, !tbaa !11
  %.not81 = icmp eq i8 %35, 0
  br i1 %.not81, label %38, label %36

36:                                               ; preds = %33
  store i8 0, ptr %34, align 1, !tbaa !11
  %37 = getelementptr inbounds nuw i8, ptr %34, i64 1
  br label %38

38:                                               ; preds = %33, %36
  %storemerge = phi ptr [ %37, %36 ], [ null, %33 ]
  store ptr %storemerge, ptr %5, align 8, !tbaa !4
  %39 = tail call ptr @strchr(ptr noundef nonnull dereferenceable(1) %31, i32 noundef 36) #28
  %.not82.not = icmp eq ptr %39, null
  br i1 %.not82.not, label %.split.us, label %.split

.split:                                           ; preds = %38
  store i8 0, ptr %39, align 1, !tbaa !11
  %40 = tail call i64 @strlen(ptr noundef nonnull dereferenceable(1) %31) #28
  %41 = sub i64 0, %40
  br label %51

.split.us:                                        ; preds = %38, %50
  %indvars.iv116 = phi i64 [ %indvars.iv.next117, %50 ], [ 0, %38 ]
  %.064102.us = phi i32 [ %.165.us, %50 ], [ 0, %38 ]
  %.3100.us = phi i64 [ %.4.us, %50 ], [ %.069, %38 ]
  %42 = getelementptr inbounds nuw %struct.hwloc_utils_parsing_flag, ptr %1, i64 %indvars.iv116, i32 1
  %43 = load ptr, ptr %42, align 8, !tbaa !99
  %44 = tail call ptr @strstr(ptr noundef nonnull dereferenceable(1) %43, ptr noundef nonnull dereferenceable(1) %31) #28
  %.not83.us = icmp eq ptr %44, null
  br i1 %.not83.us, label %50, label %45

45:                                               ; preds = %.split.us
  %.not85.us = icmp eq i32 %.064102.us, 0
  br i1 %.not85.us, label %46, label %.split104.us

46:                                               ; preds = %45
  %47 = getelementptr inbounds nuw %struct.hwloc_utils_parsing_flag, ptr %1, i64 %indvars.iv116
  %48 = load i64, ptr %47, align 8, !tbaa !101
  %49 = or i64 %48, %.3100.us
  br label %50

50:                                               ; preds = %46, %.split.us
  %.4.us = phi i64 [ %49, %46 ], [ %.3100.us, %.split.us ]
  %.165.us = phi i32 [ 1, %46 ], [ %.064102.us, %.split.us ]
  %indvars.iv.next117 = add nuw nsw i64 %indvars.iv116, 1
  %exitcond120.not = icmp eq i64 %indvars.iv.next117, %wide.trip.count119
  br i1 %exitcond120.not, label %.split106.us, label %.split.us, !llvm.loop !102

51:                                               ; preds = %.split, %65
  %indvars.iv = phi i64 [ 0, %.split ], [ %indvars.iv.next, %65 ]
  %.064102 = phi i32 [ 0, %.split ], [ %.165, %65 ]
  %.3100 = phi i64 [ %.069, %.split ], [ %.4, %65 ]
  %52 = getelementptr inbounds nuw %struct.hwloc_utils_parsing_flag, ptr %1, i64 %indvars.iv, i32 1
  %53 = load ptr, ptr %52, align 8, !tbaa !99
  %54 = tail call i64 @strlen(ptr noundef nonnull dereferenceable(1) %53) #28
  %55 = getelementptr inbounds nuw i8, ptr %53, i64 %54
  %56 = getelementptr inbounds i8, ptr %55, i64 %41
  %57 = tail call i32 @strcmp(ptr noundef nonnull dereferenceable(1) %31, ptr noundef nonnull dereferenceable(1) %56) #28
  %.not84 = icmp eq i32 %57, 0
  br i1 %.not84, label %58, label %65

58:                                               ; preds = %51
  %.not85 = icmp eq i32 %.064102, 0
  br i1 %.not85, label %61, label %.split104.us

.split104.us:                                     ; preds = %58, %45
  %59 = load ptr, ptr @stderr, align 8, !tbaa !9
  %60 = tail call i32 (ptr, ptr, ...) @fprintf(ptr noundef %59, ptr noundef nonnull @.str.87, ptr noundef %3, ptr noundef nonnull %31) #29
  tail call fastcc void @hwloc_utils_parsing_flag_error(ptr noundef %3, ptr noundef %1, i32 noundef %2)
  br label %.thread

61:                                               ; preds = %58
  %62 = getelementptr inbounds nuw %struct.hwloc_utils_parsing_flag, ptr %1, i64 %indvars.iv
  %63 = load i64, ptr %62, align 8, !tbaa !101
  %64 = or i64 %63, %.3100
  br label %65

65:                                               ; preds = %51, %61
  %.4 = phi i64 [ %.3100, %51 ], [ %64, %61 ]
  %.165 = phi i32 [ %.064102, %51 ], [ 1, %61 ]
  %indvars.iv.next = add nuw nsw i64 %indvars.iv, 1
  %exitcond.not = icmp eq i64 %indvars.iv.next, %wide.trip.count
  br i1 %exitcond.not, label %.split106.us, label %51, !llvm.loop !102

.split106.us:                                     ; preds = %65, %50
  %.us-phi107 = phi i64 [ %.4.us, %50 ], [ %.4, %65 ]
  %66 = icmp eq i64 %.069, %.us-phi107
  br i1 %66, label %67, label %.preheader

67:                                               ; preds = %.split106.us
  %68 = load ptr, ptr @stderr, align 8, !tbaa !9
  %69 = tail call i32 (ptr, ptr, ...) @fprintf(ptr noundef %68, ptr noundef nonnull @.str.88, ptr noundef %3, ptr noundef nonnull %31) #29
  tail call fastcc void @hwloc_utils_parsing_flag_error(ptr noundef %3, ptr noundef %1, i32 noundef %2)
  br label %.thread

.thread:                                          ; preds = %29, %.preheader, %67, %.split104.us, %._crit_edge, %11
  %.061 = phi i64 [ %12, %11 ], [ 0, %._crit_edge ], [ -1, %.split104.us ], [ -1, %67 ], [ %.069, %.preheader ], [ %.069, %29 ]
  call void @llvm.lifetime.end.p0(i64 8, ptr nonnull %5) #27
  ret i64 %.061
}